; Function Attrs: mustprogress uwtable
define noundef ptr @_ZN11AlignDialog11currentNodeEv(ptr nocapture noundef nonnull readonly align 8 dereferenceable(376) %0) local_unnamed_addr #9 align 2 personality ptr @__gxx_personality_v0 {
  %2 = getelementptr inbounds i8, ptr %0, i64 280
  %3 = load ptr, ptr %2, align 8
  %4 = getelementptr inbounds i8, ptr %3, i64 672
  %5 = load ptr, ptr %4, align 8
  %6 = tail call noundef ptr @_ZN12MeshDocument2mmEv(ptr noundef nonnull align 8 dereferenceable(192) %5)
  %7 = getelementptr inbounds i8, ptr %3, i64 704
  %8 = load ptr, ptr %7, align 8
  %9 = getelementptr inbounds i8, ptr %3, i64 688
  %.not10.i.i = icmp eq ptr %8, %9
  br i1 %.not10.i.i, label %_ZN15EditAlignPlugin11currentNodeEv.exit, label %.lr.ph.i.i

.lr.ph.i.i:                                       ; preds = %1, %15
  %.sroa.07.011.i.i = phi ptr [ %16, %15 ], [ %8, %1 ]
  %10 = getelementptr inbounds i8, ptr %.sroa.07.011.i.i, i64 40
  %11 = load ptr, ptr %10, align 8
  %12 = getelementptr inbounds i8, ptr %11, i64 8
  %13 = load ptr, ptr %12, align 8
  %14 = icmp eq ptr %13, %6
  br i1 %14, label %_ZN15EditAlignPlugin11currentNodeEv.exit, label %15

15:                                               ; preds = %.lr.ph.i.i
  %16 = tail call noundef ptr @_ZSt18_Rb_tree_incrementPSt18_Rb_tree_node_base(ptr noundef nonnull %.sroa.07.011.i.i) #21
  %.not.i.i = icmp eq ptr %16, %9
  br i1 %.not.i.i, label %_ZN15EditAlignPlugin11currentNodeEv.exit, label %.lr.ph.i.i

_ZN15EditAlignPlugin11currentNodeEv.exit:         ; preds = %.lr.ph.i.i, %15, %1
  %.0.i.i = phi ptr [ null, %1 ], [ null, %15 ], [ %11, %.lr.ph.i.i ]
  ret ptr %.0.i.i
}